; Function Attrs: nounwind uwtable
define range(i32 0, 2) i32 @png_icc_check_length(ptr noalias noundef %0, ptr noalias noundef %1, ptr noundef %2, i32 noundef %3) local_unnamed_addr #0 {
  %5 = icmp ult i32 %3, 132
  br i1 %5, label %icc_check_length.exit.thread, label %icc_check_length.exit

icc_check_length.exit.thread:                     ; preds = %4
  %6 = zext nneg i32 %3 to i64
  tail call fastcc void @png_icc_profile_error(ptr noundef %0, ptr noundef %1, ptr noundef %2, i64 noundef %6, ptr noundef nonnull @.str.75)
  br label %13

icc_check_length.exit:                            ; preds = %4
  %7 = getelementptr inbounds i8, ptr %0, i64 1072
  %8 = load i64, ptr %7, align 8
  %.not13 = icmp eq i64 %8, 0
  br i1 %.not13, label %13, label %9

9:                                                ; preds = %icc_check_length.exit
  %10 = zext i32 %3 to i64
  %11 = icmp ult i64 %8, %10
  br i1 %11, label %12, label %13

12:                                               ; preds = %9
  tail call fastcc void @png_icc_profile_error(ptr noundef nonnull %0, ptr noundef %1, ptr noundef %2, i64 noundef %10, ptr noundef nonnull @.str.30)
  br label %13

13:                                               ; preds = %icc_check_length.exit.thread, %9, %icc_check_length.exit, %12
  %.0 = phi i32 [ 0, %12 ], [ 1, %icc_check_length.exit ], [ 1, %9 ], [ 0, %icc_check_length.exit.thread ]
  ret i32 %.0
}